; Function Attrs: nounwind uwtable
define noalias nonnull ptr @l_Lean_Loop_forIn_loop___at_Lean_Meta_Grind_getEqcLambdas___spec__1___lambda__1(ptr noundef readonly captures(none) %0, ptr noundef %1, ptr noundef %2, ptr readnone captures(none) %3, ptr readnone captures(none) %4, ptr readnone captures(none) %5, ptr readnone captures(none) %6, ptr readnone captures(none) %7, ptr readnone captures(none) %8, ptr readnone captures(none) %9, ptr readnone captures(none) %10, ptr readnone captures(none) %11, ptr readnone captures(none) %12, ptr noundef %13) local_unnamed_addr #0 {
  %15 = getelementptr inbounds nuw i8, ptr %0, i64 16
  %16 = load ptr, ptr %15, align 8, !tbaa !4
  %17 = ptrtoint ptr %16 to i64
  %18 = and i64 %17, 1
  %.not = icmp eq i64 %18, 0
  br i1 %.not, label %19, label %lean_inc.exit

19:                                               ; preds = %14
  %.val.i = load i32, ptr %16, align 4, !tbaa !8
  %20 = icmp sgt i32 %.val.i, 0
  br i1 %20, label %21, label %23, !prof !11

21:                                               ; preds = %19
  %22 = add nuw i32 %.val.i, 1
  store i32 %22, ptr %16, align 4, !tbaa !8
  br label %lean_inc.exit

23:                                               ; preds = %19
  %.not.i = icmp eq i32 %.val.i, 0
  br i1 %.not.i, label %lean_inc.exit, label %24

24:                                               ; preds = %23
  tail call void @lean_inc_ref_cold(ptr noundef nonnull %16) #5
  br label %lean_inc.exit

lean_inc.exit:                                    ; preds = %24, %23, %21, %14
  tail call void @lean_inc_heartbeat() #5
  %25 = tail call noalias ptr @mi_malloc_small(i64 noundef 24) #5
  %26 = icmp eq ptr %25, null
  br i1 %26, label %27, label %lean_alloc_ctor.exit

27:                                               ; preds = %lean_inc.exit
  tail call void @lean_internal_panic_out_of_memory() #6
  unreachable

lean_alloc_ctor.exit:                             ; preds = %lean_inc.exit
  %28 = getelementptr inbounds nuw i8, ptr %25, i64 4
  store i32 1, ptr %25, align 4, !tbaa !8
  store i32 131096, ptr %28, align 4
  %29 = getelementptr inbounds nuw i8, ptr %25, i64 8
  store ptr %16, ptr %29, align 8, !tbaa !4
  %30 = getelementptr inbounds nuw i8, ptr %25, i64 16
  store ptr %1, ptr %30, align 8, !tbaa !4
  tail call void @lean_inc_heartbeat() #5
  %31 = tail call noalias ptr @mi_malloc_small(i64 noundef 24) #5
  %32 = icmp eq ptr %31, null
  br i1 %32, label %33, label %lean_alloc_ctor.exit17

33:                                               ; preds = %lean_alloc_ctor.exit
  tail call void @lean_internal_panic_out_of_memory() #6
  unreachable

lean_alloc_ctor.exit17:                           ; preds = %lean_alloc_ctor.exit
  %34 = getelementptr inbounds nuw i8, ptr %31, i64 4
  store i32 1, ptr %31, align 4, !tbaa !8
  store i32 131096, ptr %34, align 4
  %35 = getelementptr inbounds nuw i8, ptr %31, i64 8
  store ptr %2, ptr %35, align 8, !tbaa !4
  %36 = getelementptr inbounds nuw i8, ptr %31, i64 16
  store ptr %25, ptr %36, align 8, !tbaa !4
  tail call void @lean_inc_heartbeat() #5
  %37 = tail call noalias ptr @mi_malloc_small(i64 noundef 16) #5
  %38 = icmp eq ptr %37, null
  br i1 %38, label %39, label %lean_alloc_ctor.exit18

39:                                               ; preds = %lean_alloc_ctor.exit17
  tail call void @lean_internal_panic_out_of_memory() #6
  unreachable

lean_alloc_ctor.exit18:                           ; preds = %lean_alloc_ctor.exit17
  %40 = getelementptr inbounds nuw i8, ptr %37, i64 4
  store i32 1, ptr %37, align 4, !tbaa !8
  store i32 16842768, ptr %40, align 4
  %41 = getelementptr inbounds nuw i8, ptr %37, i64 8
  store ptr %31, ptr %41, align 8, !tbaa !4
  tail call void @lean_inc_heartbeat() #5
  %42 = tail call noalias ptr @mi_malloc_small(i64 noundef 24) #5
  %43 = icmp eq ptr %42, null
  br i1 %43, label %44, label %lean_alloc_ctor.exit19

44:                                               ; preds = %lean_alloc_ctor.exit18
  tail call void @lean_internal_panic_out_of_memory() #6
  unreachable

lean_alloc_ctor.exit19:                           ; preds = %lean_alloc_ctor.exit18
  %45 = getelementptr inbounds nuw i8, ptr %42, i64 4
  store i32 1, ptr %42, align 4, !tbaa !8
  store i32 131096, ptr %45, align 4
  %46 = getelementptr inbounds nuw i8, ptr %42, i64 8
  store ptr %37, ptr %46, align 8, !tbaa !4
  %47 = getelementptr inbounds nuw i8, ptr %42, i64 16
  store ptr %13, ptr %47, align 8, !tbaa !4
  ret ptr %42
}